target datalayout = "e-m:e-p270:32:32-p271:32:32-p272:64:64-i64:64-i128:128-f80:128-n8:16:32:64-S128"
target triple = "x86_64-pc-linux-gnu"

%struct.dictType = type { ptr, ptr, ptr, ptr, ptr, ptr, ptr, ptr, ptr, ptr, ptr, i8, ptr, ptr, ptr }
%struct.dict = type { ptr, [2 x ptr], [2 x i64], i64, i16, [2 x i8], i16, [0 x ptr] }

; Function Attrs: nounwind uwtable
define dso_local ptr @dictAddRaw(ptr noundef %0, ptr noundef %1, ptr noundef %2) #0 {
  %4 = alloca ptr, align 8
  %5 = alloca ptr, align 8
  %6 = alloca ptr, align 8
  %7 = alloca ptr, align 8
  %8 = alloca ptr, align 8
  %9 = alloca i32, align 4
  store ptr %0, ptr %5, align 8, !tbaa !18
  store ptr %1, ptr %6, align 8, !tbaa !10
  store ptr %2, ptr %7, align 8, !tbaa !30
  call void @llvm.lifetime.start.p0(i64 8, ptr %8) #14
  %10 = load ptr, ptr %5, align 8, !tbaa !18
  %11 = load ptr, ptr %6, align 8, !tbaa !10
  %12 = load ptr, ptr %7, align 8, !tbaa !30
  %13 = call ptr @dictFindPositionForInsert(ptr noundef %10, ptr noundef %11, ptr noundef %12)
  store ptr %13, ptr %8, align 8, !tbaa !10
  %14 = load ptr, ptr %8, align 8, !tbaa !10
  %15 = icmp ne ptr %14, null
  br i1 %15, label %17, label %16

16:                                               ; preds = %3
  store ptr null, ptr %4, align 8
  store i32 1, ptr %9, align 4
  br label %38

17:                                               ; preds = %3
  %18 = load ptr, ptr %5, align 8, !tbaa !18
  %19 = getelementptr inbounds nuw %struct.dict, ptr %18, i32 0, i32 0
  %20 = load ptr, ptr %19, align 8, !tbaa !13
  %21 = getelementptr inbounds nuw %struct.dictType, ptr %20, i32 0, i32 1
  %22 = load ptr, ptr %21, align 8, !tbaa !47
  %23 = icmp ne ptr %22, null
  br i1 %23, label %24, label %33

24:                                               ; preds = %17
  %25 = load ptr, ptr %5, align 8, !tbaa !18
  %26 = getelementptr inbounds nuw %struct.dict, ptr %25, i32 0, i32 0
  %27 = load ptr, ptr %26, align 8, !tbaa !13
  %28 = getelementptr inbounds nuw %struct.dictType, ptr %27, i32 0, i32 1
  %29 = load ptr, ptr %28, align 8, !tbaa !47
  %30 = load ptr, ptr %5, align 8, !tbaa !18
  %31 = load ptr, ptr %6, align 8, !tbaa !10
  %32 = call ptr %29(ptr noundef %30, ptr noundef %31)
  store ptr %32, ptr %6, align 8, !tbaa !10
  br label %33

33:                                               ; preds = %24, %17
  %34 = load ptr, ptr %5, align 8, !tbaa !18
  %35 = load ptr, ptr %6, align 8, !tbaa !10
  %36 = load ptr, ptr %8, align 8, !tbaa !10
  %37 = call ptr @dictInsertAtPosition(ptr noundef %34, ptr noundef %35, ptr noundef %36)
  store ptr %37, ptr %4, align 8
  store i32 1, ptr %9, align 4
  br label %38

38:                                               ; preds = %33, %16
  call void @llvm.lifetime.end.p0(i64 8, ptr %8) #14
  %39 = load ptr, ptr %4, align 8
  ret ptr %39
}