; Function Attrs: nounwind uwtable
define dso_local ptr @dictAddRaw(ptr noundef %0, ptr noundef %1, ptr noundef captures(address_is_null) %2) local_unnamed_addr #3 {
  %4 = tail call ptr @dictFindPositionForInsert(ptr noundef %0, ptr noundef %1, ptr noundef %2)
  %.not = icmp eq ptr %4, null
  br i1 %.not, label %13, label %5

5:                                                ; preds = %3
  %6 = load ptr, ptr %0, align 8, !tbaa !16
  %7 = getelementptr inbounds nuw i8, ptr %6, i64 8
  %8 = load ptr, ptr %7, align 8, !tbaa !49
  %.not15 = icmp eq ptr %8, null
  br i1 %.not15, label %11, label %9

9:                                                ; preds = %5
  %10 = tail call ptr %8(ptr noundef nonnull %0, ptr noundef %1) #25
  br label %11

11:                                               ; preds = %9, %5
  %.012 = phi ptr [ %10, %9 ], [ %1, %5 ]
  %12 = tail call ptr @dictInsertAtPosition(ptr noundef nonnull %0, ptr noundef %.012, ptr noundef nonnull %4)
  br label %13

13:                                               ; preds = %3, %11
  %.0 = phi ptr [ %12, %11 ], [ null, %3 ]
  ret ptr %.0
}